target datalayout = "e-m:e-p270:32:32-p271:32:32-p272:64:64-i64:64-i128:128-f80:128-n8:16:32:64-S128"
target triple = "x86_64-pc-linux-gnu"

%struct.expert_field = type { i32, i32 }

@hf_pn_io_slot_nr = internal global i32 0, align 4
@hf_pn_io_subslot_nr = internal global i32 0, align 4
@ei_pn_io_block_version = internal global %struct.expert_field zeroinitializer, align 4
@.str.1317 = private unnamed_addr constant [41 x i8] c"Block version %u.%u not implemented yet!\00", align 1
@.str.1549 = private unnamed_addr constant [17 x i8] c": Slot:0x%x/0x%x\00", align 1

; Function Attrs: nounwind uwtable
define internal i32 @dissect_PDPortDataRealExtended_block(ptr noundef %0, i32 noundef %1, ptr noundef %2, ptr noundef %3, ptr noundef %4, ptr noundef %5, i8 noundef zeroext %6, i8 noundef zeroext %7, i16 noundef zeroext %8) #0 {
  %10 = alloca i32, align 4
  %11 = alloca ptr, align 8
  %12 = alloca i32, align 4
  %13 = alloca ptr, align 8
  %14 = alloca ptr, align 8
  %15 = alloca ptr, align 8
  %16 = alloca ptr, align 8
  %17 = alloca i8, align 1
  %18 = alloca i8, align 1
  %19 = alloca i16, align 2
  %20 = alloca i16, align 2
  %21 = alloca i16, align 2
  %22 = alloca i16, align 2
  %23 = alloca i32, align 4
  %24 = alloca ptr, align 8
  %25 = alloca i32, align 4
  store ptr %0, ptr %11, align 8
  store i32 %1, ptr %12, align 4
  store ptr %2, ptr %13, align 8
  store ptr %3, ptr %14, align 8
  store ptr %4, ptr %15, align 8
  store ptr %5, ptr %16, align 8
  store i8 %6, ptr %17, align 1
  store i8 %7, ptr %18, align 1
  store i16 %8, ptr %19, align 2
  store i16 0, ptr %22, align 2
  store ptr null, ptr %24, align 8
  %26 = load i32, ptr %12, align 4
  %27 = load i16, ptr %19, align 2
  %28 = zext i16 %27 to i32
  %29 = add i32 %26, %28
  store i32 %29, ptr %25, align 4
  %30 = load i8, ptr %17, align 1
  %31 = zext i8 %30 to i32
  %32 = icmp ne i32 %31, 1
  br i1 %32, label %37, label %33

33:                                               ; preds = %9
  %34 = load i8, ptr %18, align 1
  %35 = zext i8 %34 to i32
  %36 = icmp ne i32 %35, 0
  br i1 %36, label %37, label %46

37:                                               ; preds = %33, %9
  %38 = load ptr, ptr %13, align 8
  %39 = load ptr, ptr %15, align 8
  %40 = load i8, ptr %17, align 1
  %41 = zext i8 %40 to i32
  %42 = load i8, ptr %18, align 1
  %43 = zext i8 %42 to i32
  %44 = call ptr (ptr, ptr, ptr, ptr, ...) @expert_add_info_format(ptr noundef %38, ptr noundef %39, ptr noundef @ei_pn_io_block_version, ptr noundef @.str.1317, i32 noundef %41, i32 noundef %43)
  %45 = load i32, ptr %12, align 4
  store i32 %45, ptr %10, align 4
  br label %86

46:                                               ; preds = %33
  %47 = load ptr, ptr %11, align 8
  %48 = load i32, ptr %12, align 4
  %49 = load ptr, ptr %13, align 8
  %50 = load ptr, ptr %14, align 8
  %51 = call i32 @dissect_pn_align4(ptr noundef %47, i32 noundef %48, ptr noundef %49, ptr noundef %50)
  store i32 %51, ptr %12, align 4
  %52 = load ptr, ptr %11, align 8
  %53 = load i32, ptr %12, align 4
  %54 = load ptr, ptr %13, align 8
  %55 = load ptr, ptr %14, align 8
  %56 = load ptr, ptr %16, align 8
  %57 = load i32, ptr @hf_pn_io_slot_nr, align 4
  %58 = call i32 @dissect_dcerpc_uint16(ptr noundef %52, i32 noundef %53, ptr noundef %54, ptr noundef %55, ptr noundef %56, i32 noundef %57, ptr noundef %20)
  store i32 %58, ptr %12, align 4
  %59 = load ptr, ptr %11, align 8
  %60 = load i32, ptr %12, align 4
  %61 = load ptr, ptr %13, align 8
  %62 = load ptr, ptr %14, align 8
  %63 = load ptr, ptr %16, align 8
  %64 = load i32, ptr @hf_pn_io_subslot_nr, align 4
  %65 = call i32 @dissect_dcerpc_uint16(ptr noundef %59, i32 noundef %60, ptr noundef %61, ptr noundef %62, ptr noundef %63, i32 noundef %64, ptr noundef %21)
  store i32 %65, ptr %12, align 4
  %66 = load ptr, ptr %15, align 8
  %67 = load i16, ptr %20, align 2
  %68 = zext i16 %67 to i32
  %69 = load i16, ptr %21, align 2
  %70 = zext i16 %69 to i32
  call void (ptr, ptr, ...) @proto_item_append_text(ptr noundef %66, ptr noundef @.str.1549, i32 noundef %68, i32 noundef %70)
  br label %71

71:                                               ; preds = %75, %46
  %72 = load i32, ptr %25, align 4
  %73 = load i32, ptr %12, align 4
  %74 = icmp sgt i32 %72, %73
  br i1 %74, label %75, label %84

75:                                               ; preds = %71
  %76 = load ptr, ptr %11, align 8
  %77 = load i32, ptr %12, align 4
  %78 = load ptr, ptr %13, align 8
  %79 = load ptr, ptr %14, align 8
  %80 = load ptr, ptr %16, align 8
  %81 = call i32 @dissect_block(ptr noundef %76, i32 noundef %77, ptr noundef %78, ptr noundef %79, ptr noundef %80, ptr noundef %22, ptr noundef %23, ptr noundef %24)
  store i32 %81, ptr %12, align 4
  %82 = load i16, ptr %22, align 2
  %83 = add i16 %82, 1
  store i16 %83, ptr %22, align 2
  br label %71, !llvm.loop !59

84:                                               ; preds = %71
  %85 = load i32, ptr %12, align 4
  store i32 %85, ptr %10, align 4
  br label %86

86:                                               ; preds = %84, %37
  %87 = load i32, ptr %10, align 4
  ret i32 %87
}