; Function Attrs: nounwind uwtable
define internal fastcc void @dissect_PDPortDataRealExtended_block(ptr noundef %0, i32 noundef %1, ptr noundef %2, ptr noundef %3, ptr noundef %4, ptr noundef %5, i8 noundef zeroext %6, i8 noundef zeroext %7, i16 noundef zeroext %8) unnamed_addr #0 {
  %10 = alloca i16, align 2
  %11 = alloca i16, align 2
  %12 = alloca i16, align 2
  %13 = alloca i32, align 4
  %14 = alloca ptr, align 8
  store i16 0, ptr %12, align 2
  store ptr null, ptr %14, align 8
  %15 = zext i16 %8 to i32
  %16 = add i32 %1, %15
  %17 = icmp ne i8 %6, 1
  %18 = icmp ne i8 %7, 0
  %or.cond = or i1 %17, %18
  br i1 %or.cond, label %19, label %23

19:                                               ; preds = %9
  %20 = zext i8 %7 to i32
  %21 = zext i8 %6 to i32
  %22 = tail call ptr (ptr, ptr, ptr, ptr, ...) @expert_add_info_format(ptr noundef %2, ptr noundef %4, ptr noundef nonnull @ei_pn_io_block_version, ptr noundef nonnull @.str.1317, i32 noundef %21, i32 noundef %20) #11
  br label %.loopexit

23:                                               ; preds = %9
  %24 = tail call i32 @dissect_pn_align4(ptr noundef %0, i32 noundef %1, ptr noundef %2, ptr noundef %3) #11
  %25 = load i32, ptr @hf_pn_io_slot_nr, align 4
  %26 = call i32 @dissect_dcerpc_uint16(ptr noundef %0, i32 noundef %24, ptr noundef %2, ptr noundef %3, ptr noundef %5, i32 noundef %25, ptr noundef nonnull %10) #11
  %27 = load i32, ptr @hf_pn_io_subslot_nr, align 4
  %28 = call i32 @dissect_dcerpc_uint16(ptr noundef %0, i32 noundef %26, ptr noundef %2, ptr noundef %3, ptr noundef %5, i32 noundef %27, ptr noundef nonnull %11) #11
  %29 = load i16, ptr %10, align 2
  %30 = zext i16 %29 to i32
  %31 = load i16, ptr %11, align 2
  %32 = zext i16 %31 to i32
  call void (ptr, ptr, ...) @proto_item_append_text(ptr noundef %4, ptr noundef nonnull @.str.1549, i32 noundef %30, i32 noundef %32) #11
  %33 = icmp sgt i32 %16, %28
  br i1 %33, label %.lr.ph, label %.loopexit

.lr.ph:                                           ; preds = %23, %.lr.ph
  %.03435 = phi i32 [ %34, %.lr.ph ], [ %28, %23 ]
  %34 = call fastcc i32 @dissect_block(ptr noundef %0, i32 noundef %.03435, ptr noundef %2, ptr noundef %3, ptr noundef %5, ptr noundef %12, ptr noundef %13, ptr noundef %14)
  %35 = load i16, ptr %12, align 2
  %36 = add i16 %35, 1
  store i16 %36, ptr %12, align 2
  %37 = icmp sgt i32 %16, %34
  br i1 %37, label %.lr.ph, label %.loopexit, !llvm.loop !67

.loopexit:                                        ; preds = %.lr.ph, %23, %19
  ret void
}